target datalayout = "e-m:e-p270:32:32-p271:32:32-p272:64:64-i64:64-i128:128-f80:128-n8:16:32:64-S128"
target triple = "x86_64-pc-linux-gnu"

@s_Truths6 = internal global [6 x i64] [i64 -6148914691236517206, i64 -3689348814741910324, i64 -1085102592571150096, i64 -71777214294589696, i64 -281470681808896, i64 -4294967296], align 16
@s_Truths6Neg = internal global [6 x i64] [i64 6148914691236517205, i64 3689348814741910323, i64 1085102592571150095, i64 71777214294589695, i64 281470681808895, i64 4294967295], align 16

; Function Attrs: inlinehint nounwind uwtable
define internal void @Abc_TtMux(ptr noundef %0, ptr noundef %1, ptr noundef %2, ptr noundef %3, i32 noundef %4) #2 {
  %6 = alloca ptr, align 8
  %7 = alloca ptr, align 8
  %8 = alloca ptr, align 8
  %9 = alloca ptr, align 8
  %10 = alloca i32, align 4
  %11 = alloca i32, align 4
  store ptr %0, ptr %6, align 8, !tbaa !35
  store ptr %1, ptr %7, align 8, !tbaa !35
  store ptr %2, ptr %8, align 8, !tbaa !35
  store ptr %3, ptr %9, align 8, !tbaa !35
  store i32 %4, ptr %10, align 4, !tbaa !8
  call void @llvm.lifetime.start.p0(i64 4, ptr %11) #9
  store i32 0, ptr %11, align 4, !tbaa !8
  br label %12

12:                                               ; preds = %45, %5
  %13 = load i32, ptr %11, align 4, !tbaa !8
  %14 = load i32, ptr %10, align 4, !tbaa !8
  %15 = icmp slt i32 %13, %14
  br i1 %15, label %16, label %48

16:                                               ; preds = %12
  %17 = load ptr, ptr %7, align 8, !tbaa !35
  %18 = load i32, ptr %11, align 4, !tbaa !8
  %19 = sext i32 %18 to i64
  %20 = getelementptr inbounds i64, ptr %17, i64 %19
  %21 = load i64, ptr %20, align 8, !tbaa !33
  %22 = load ptr, ptr %8, align 8, !tbaa !35
  %23 = load i32, ptr %11, align 4, !tbaa !8
  %24 = sext i32 %23 to i64
  %25 = getelementptr inbounds i64, ptr %22, i64 %24
  %26 = load i64, ptr %25, align 8, !tbaa !33
  %27 = and i64 %21, %26
  %28 = load ptr, ptr %7, align 8, !tbaa !35
  %29 = load i32, ptr %11, align 4, !tbaa !8
  %30 = sext i32 %29 to i64
  %31 = getelementptr inbounds i64, ptr %28, i64 %30
  %32 = load i64, ptr %31, align 8, !tbaa !33
  %33 = xor i64 %32, -1
  %34 = load ptr, ptr %9, align 8, !tbaa !35
  %35 = load i32, ptr %11, align 4, !tbaa !8
  %36 = sext i32 %35 to i64
  %37 = getelementptr inbounds i64, ptr %34, i64 %36
  %38 = load i64, ptr %37, align 8, !tbaa !33
  %39 = and i64 %33, %38
  %40 = or i64 %27, %39
  %41 = load ptr, ptr %6, align 8, !tbaa !35
  %42 = load i32, ptr %11, align 4, !tbaa !8
  %43 = sext i32 %42 to i64
  %44 = getelementptr inbounds i64, ptr %41, i64 %43
  store i64 %40, ptr %44, align 8, !tbaa !33
  br label %45

45:                                               ; preds = %16
  %46 = load i32, ptr %11, align 4, !tbaa !8
  %47 = add nsw i32 %46, 1
  store i32 %47, ptr %11, align 4, !tbaa !8
  br label %12, !llvm.loop !50

48:                                               ; preds = %12
  call void @llvm.lifetime.end.p0(i64 4, ptr %11) #9
  ret void
}

; Function Attrs: inlinehint nounwind uwtable
define internal i64 @Abc_Tt6Cofactor1(i64 noundef %0, i32 noundef %1) #2 {
  %3 = alloca i64, align 8
  %4 = alloca i32, align 4
  store i64 %0, ptr %3, align 8, !tbaa !33
  store i32 %1, ptr %4, align 4, !tbaa !8
  %5 = load i64, ptr %3, align 8, !tbaa !33
  %6 = load i32, ptr %4, align 4, !tbaa !8
  %7 = sext i32 %6 to i64
  %8 = getelementptr inbounds [6 x i64], ptr @s_Truths6, i64 0, i64 %7
  %9 = load i64, ptr %8, align 8, !tbaa !33
  %10 = and i64 %5, %9
  %11 = load i64, ptr %3, align 8, !tbaa !33
  %12 = load i32, ptr %4, align 4, !tbaa !8
  %13 = sext i32 %12 to i64
  %14 = getelementptr inbounds [6 x i64], ptr @s_Truths6, i64 0, i64 %13
  %15 = load i64, ptr %14, align 8, !tbaa !33
  %16 = and i64 %11, %15
  %17 = load i32, ptr %4, align 4, !tbaa !8
  %18 = shl i32 1, %17
  %19 = zext i32 %18 to i64
  %20 = lshr i64 %16, %19
  %21 = or i64 %10, %20
  ret i64 %21
}

; Function Attrs: inlinehint nounwind uwtable
define internal i64 @Abc_Tt6Cofactor0(i64 noundef %0, i32 noundef %1) #2 {
  %3 = alloca i64, align 8
  %4 = alloca i32, align 4
  store i64 %0, ptr %3, align 8, !tbaa !33
  store i32 %1, ptr %4, align 4, !tbaa !8
  %5 = load i64, ptr %3, align 8, !tbaa !33
  %6 = load i32, ptr %4, align 4, !tbaa !8
  %7 = sext i32 %6 to i64
  %8 = getelementptr inbounds [6 x i64], ptr @s_Truths6Neg, i64 0, i64 %7
  %9 = load i64, ptr %8, align 8, !tbaa !33
  %10 = and i64 %5, %9
  %11 = load i64, ptr %3, align 8, !tbaa !33
  %12 = load i32, ptr %4, align 4, !tbaa !8
  %13 = sext i32 %12 to i64
  %14 = getelementptr inbounds [6 x i64], ptr @s_Truths6Neg, i64 0, i64 %13
  %15 = load i64, ptr %14, align 8, !tbaa !33
  %16 = and i64 %11, %15
  %17 = load i32, ptr %4, align 4, !tbaa !8
  %18 = shl i32 1, %17
  %19 = zext i32 %18 to i64
  %20 = shl i64 %16, %19
  %21 = or i64 %10, %20
  ret i64 %21
}

; Function Attrs: inlinehint nounwind uwtable
define internal i32 @Abc_Tt6HasVar(i64 noundef %0, i32 noundef %1) #2 {
  %3 = alloca i64, align 8
  %4 = alloca i32, align 4
  store i64 %0, ptr %3, align 8, !tbaa !33
  store i32 %1, ptr %4, align 4, !tbaa !8
  %5 = load i64, ptr %3, align 8, !tbaa !33
  %6 = load i32, ptr %4, align 4, !tbaa !8
  %7 = shl i32 1, %6
  %8 = zext i32 %7 to i64
  %9 = lshr i64 %5, %8
  %10 = load i32, ptr %4, align 4, !tbaa !8
  %11 = sext i32 %10 to i64
  %12 = getelementptr inbounds [6 x i64], ptr @s_Truths6Neg, i64 0, i64 %11
  %13 = load i64, ptr %12, align 8, !tbaa !33
  %14 = and i64 %9, %13
  %15 = load i64, ptr %3, align 8, !tbaa !33
  %16 = load i32, ptr %4, align 4, !tbaa !8
  %17 = sext i32 %16 to i64
  %18 = getelementptr inbounds [6 x i64], ptr @s_Truths6Neg, i64 0, i64 %17
  %19 = load i64, ptr %18, align 8, !tbaa !33
  %20 = and i64 %15, %19
  %21 = icmp ne i64 %14, %20
  %22 = zext i1 %21 to i32
  ret i32 %22
}

; Function Attrs: inlinehint nounwind uwtable
define internal void @Abc_TtCopy(ptr noundef %0, ptr noundef %1, i32 noundef %2, i32 noundef %3) #2 {
  %5 = alloca ptr, align 8
  %6 = alloca ptr, align 8
  %7 = alloca i32, align 4
  %8 = alloca i32, align 4
  %9 = alloca i32, align 4
  store ptr %0, ptr %5, align 8, !tbaa !35
  store ptr %1, ptr %6, align 8, !tbaa !35
  store i32 %2, ptr %7, align 4, !tbaa !8
  store i32 %3, ptr %8, align 4, !tbaa !8
  call void @llvm.lifetime.start.p0(i64 4, ptr %9) #9
  %10 = load i32, ptr %8, align 4, !tbaa !8
  %11 = icmp ne i32 %10, 0
  br i1 %11, label %12, label %32

12:                                               ; preds = %4
  store i32 0, ptr %9, align 4, !tbaa !8
  br label %13

13:                                               ; preds = %28, %12
  %14 = load i32, ptr %9, align 4, !tbaa !8
  %15 = load i32, ptr %7, align 4, !tbaa !8
  %16 = icmp slt i32 %14, %15
  br i1 %16, label %17, label %31

17:                                               ; preds = %13
  %18 = load ptr, ptr %6, align 8, !tbaa !35
  %19 = load i32, ptr %9, align 4, !tbaa !8
  %20 = sext i32 %19 to i64
  %21 = getelementptr inbounds i64, ptr %18, i64 %20
  %22 = load i64, ptr %21, align 8, !tbaa !33
  %23 = xor i64 %22, -1
  %24 = load ptr, ptr %5, align 8, !tbaa !35
  %25 = load i32, ptr %9, align 4, !tbaa !8
  %26 = sext i32 %25 to i64
  %27 = getelementptr inbounds i64, ptr %24, i64 %26
  store i64 %23, ptr %27, align 8, !tbaa !33
  br label %28

28:                                               ; preds = %17
  %29 = load i32, ptr %9, align 4, !tbaa !8
  %30 = add nsw i32 %29, 1
  store i32 %30, ptr %9, align 4, !tbaa !8
  br label %13, !llvm.loop !48

31:                                               ; preds = %13
  br label %51

32:                                               ; preds = %4
  store i32 0, ptr %9, align 4, !tbaa !8
  br label %33

33:                                               ; preds = %47, %32
  %34 = load i32, ptr %9, align 4, !tbaa !8
  %35 = load i32, ptr %7, align 4, !tbaa !8
  %36 = icmp slt i32 %34, %35
  br i1 %36, label %37, label %50

37:                                               ; preds = %33
  %38 = load ptr, ptr %6, align 8, !tbaa !35
  %39 = load i32, ptr %9, align 4, !tbaa !8
  %40 = sext i32 %39 to i64
  %41 = getelementptr inbounds i64, ptr %38, i64 %40
  %42 = load i64, ptr %41, align 8, !tbaa !33
  %43 = load ptr, ptr %5, align 8, !tbaa !35
  %44 = load i32, ptr %9, align 4, !tbaa !8
  %45 = sext i32 %44 to i64
  %46 = getelementptr inbounds i64, ptr %43, i64 %45
  store i64 %42, ptr %46, align 8, !tbaa !33
  br label %47

47:                                               ; preds = %37
  %48 = load i32, ptr %9, align 4, !tbaa !8
  %49 = add nsw i32 %48, 1
  store i32 %49, ptr %9, align 4, !tbaa !8
  br label %33, !llvm.loop !49

50:                                               ; preds = %33
  br label %51

51:                                               ; preds = %50, %31
  call void @llvm.lifetime.end.p0(i64 4, ptr %9) #9
  ret void
}

; Function Attrs: inlinehint nounwind uwtable
define internal void @Abc_TtConst1(ptr noundef %0, i32 noundef %1) #2 {
  %3 = alloca ptr, align 8
  %4 = alloca i32, align 4
  %5 = alloca i32, align 4
  store ptr %0, ptr %3, align 8, !tbaa !35
  store i32 %1, ptr %4, align 4, !tbaa !8
  call void @llvm.lifetime.start.p0(i64 4, ptr %5) #9
  store i32 0, ptr %5, align 4, !tbaa !8
  br label %6

6:                                                ; preds = %15, %2
  %7 = load i32, ptr %5, align 4, !tbaa !8
  %8 = load i32, ptr %4, align 4, !tbaa !8
  %9 = icmp slt i32 %7, %8
  br i1 %9, label %10, label %18

10:                                               ; preds = %6
  %11 = load ptr, ptr %3, align 8, !tbaa !35
  %12 = load i32, ptr %5, align 4, !tbaa !8
  %13 = sext i32 %12 to i64
  %14 = getelementptr inbounds i64, ptr %11, i64 %13
  store i64 -1, ptr %14, align 8, !tbaa !33
  br label %15

15:                                               ; preds = %10
  %16 = load i32, ptr %5, align 4, !tbaa !8
  %17 = add nsw i32 %16, 1
  store i32 %17, ptr %5, align 4, !tbaa !8
  br label %6, !llvm.loop !47

18:                                               ; preds = %6
  call void @llvm.lifetime.end.p0(i64 4, ptr %5) #9
  ret void
}

; Function Attrs: inlinehint nounwind uwtable
define internal void @Abc_TtConst0(ptr noundef %0, i32 noundef %1) #2 {
  %3 = alloca ptr, align 8
  %4 = alloca i32, align 4
  %5 = alloca i32, align 4
  store ptr %0, ptr %3, align 8, !tbaa !35
  store i32 %1, ptr %4, align 4, !tbaa !8
  call void @llvm.lifetime.start.p0(i64 4, ptr %5) #9
  store i32 0, ptr %5, align 4, !tbaa !8
  br label %6

6:                                                ; preds = %15, %2
  %7 = load i32, ptr %5, align 4, !tbaa !8
  %8 = load i32, ptr %4, align 4, !tbaa !8
  %9 = icmp slt i32 %7, %8
  br i1 %9, label %10, label %18

10:                                               ; preds = %6
  %11 = load ptr, ptr %3, align 8, !tbaa !35
  %12 = load i32, ptr %5, align 4, !tbaa !8
  %13 = sext i32 %12 to i64
  %14 = getelementptr inbounds i64, ptr %11, i64 %13
  store i64 0, ptr %14, align 8, !tbaa !33
  br label %15

15:                                               ; preds = %10
  %16 = load i32, ptr %5, align 4, !tbaa !8
  %17 = add nsw i32 %16, 1
  store i32 %17, ptr %5, align 4, !tbaa !8
  br label %6, !llvm.loop !46

18:                                               ; preds = %6
  call void @llvm.lifetime.end.p0(i64 4, ptr %5) #9
  ret void
}

; Function Attrs: nounwind uwtable
define void @Dau_DsdTruth6Compose_rec(i64 noundef %0, ptr noundef %1, ptr noundef %2, i32 noundef %3, i32 noundef %4) #0 {
  %6 = alloca i64, align 8
  %7 = alloca ptr, align 8
  %8 = alloca ptr, align 8
  %9 = alloca i32, align 4
  %10 = alloca i32, align 4
  %11 = alloca [2 x [64 x i64]], align 16
  store i64 %0, ptr %6, align 8, !tbaa !33
  store ptr %1, ptr %7, align 8, !tbaa !35
  store ptr %2, ptr %8, align 8, !tbaa !35
  store i32 %3, ptr %9, align 4, !tbaa !8
  store i32 %4, ptr %10, align 4, !tbaa !8
  %12 = load i64, ptr %6, align 8, !tbaa !33
  %13 = icmp eq i64 %12, 0
  br i1 %13, label %14, label %17

14:                                               ; preds = %5
  %15 = load ptr, ptr %8, align 8, !tbaa !35
  %16 = load i32, ptr %10, align 4, !tbaa !8
  call void @Abc_TtConst0(ptr noundef %15, i32 noundef %16)
  br label %76

17:                                               ; preds = %5
  %18 = load i64, ptr %6, align 8, !tbaa !33
  %19 = icmp eq i64 %18, -1
  br i1 %19, label %20, label %23

20:                                               ; preds = %17
  %21 = load ptr, ptr %8, align 8, !tbaa !35
  %22 = load i32, ptr %10, align 4, !tbaa !8
  call void @Abc_TtConst1(ptr noundef %21, i32 noundef %22)
  br label %76

23:                                               ; preds = %17
  %24 = load i32, ptr %9, align 4, !tbaa !8
  %25 = add nsw i32 %24, -1
  store i32 %25, ptr %9, align 4, !tbaa !8
  %26 = icmp eq i32 %25, 0
  br i1 %26, label %27, label %37

27:                                               ; preds = %23
  %28 = load ptr, ptr %8, align 8, !tbaa !35
  %29 = load ptr, ptr %7, align 8, !tbaa !35
  %30 = getelementptr inbounds [64 x i64], ptr %29, i64 0
  %31 = getelementptr inbounds [64 x i64], ptr %30, i64 0, i64 0
  %32 = load i32, ptr %10, align 4, !tbaa !8
  %33 = load i64, ptr %6, align 8, !tbaa !33
  %34 = load i64, ptr @s_Truths6Neg, align 16, !tbaa !33
  %35 = icmp eq i64 %33, %34
  %36 = zext i1 %35 to i32
  call void @Abc_TtCopy(ptr noundef %28, ptr noundef %31, i32 noundef %32, i32 noundef %36)
  br label %76

37:                                               ; preds = %23
  %38 = load i64, ptr %6, align 8, !tbaa !33
  %39 = load i32, ptr %9, align 4, !tbaa !8
  %40 = call i32 @Abc_Tt6HasVar(i64 noundef %38, i32 noundef %39)
  %41 = icmp ne i32 %40, 0
  br i1 %41, label %48, label %42

42:                                               ; preds = %37
  %43 = load i64, ptr %6, align 8, !tbaa !33
  %44 = load ptr, ptr %7, align 8, !tbaa !35
  %45 = load ptr, ptr %8, align 8, !tbaa !35
  %46 = load i32, ptr %9, align 4, !tbaa !8
  %47 = load i32, ptr %10, align 4, !tbaa !8
  call void @Dau_DsdTruth6Compose_rec(i64 noundef %43, ptr noundef %44, ptr noundef %45, i32 noundef %46, i32 noundef %47)
  br label %76

48:                                               ; preds = %37
  call void @llvm.lifetime.start.p0(i64 1024, ptr %11) #9
  %49 = load i64, ptr %6, align 8, !tbaa !33
  %50 = load i32, ptr %9, align 4, !tbaa !8
  %51 = call i64 @Abc_Tt6Cofactor0(i64 noundef %49, i32 noundef %50)
  %52 = load ptr, ptr %7, align 8, !tbaa !35
  %53 = getelementptr inbounds [2 x [64 x i64]], ptr %11, i64 0, i64 0
  %54 = getelementptr inbounds [64 x i64], ptr %53, i64 0, i64 0
  %55 = load i32, ptr %9, align 4, !tbaa !8
  %56 = load i32, ptr %10, align 4, !tbaa !8
  call void @Dau_DsdTruth6Compose_rec(i64 noundef %51, ptr noundef %52, ptr noundef %54, i32 noundef %55, i32 noundef %56)
  %57 = load i64, ptr %6, align 8, !tbaa !33
  %58 = load i32, ptr %9, align 4, !tbaa !8
  %59 = call i64 @Abc_Tt6Cofactor1(i64 noundef %57, i32 noundef %58)
  %60 = load ptr, ptr %7, align 8, !tbaa !35
  %61 = getelementptr inbounds [2 x [64 x i64]], ptr %11, i64 0, i64 1
  %62 = getelementptr inbounds [64 x i64], ptr %61, i64 0, i64 0
  %63 = load i32, ptr %9, align 4, !tbaa !8
  %64 = load i32, ptr %10, align 4, !tbaa !8
  call void @Dau_DsdTruth6Compose_rec(i64 noundef %59, ptr noundef %60, ptr noundef %62, i32 noundef %63, i32 noundef %64)
  %65 = load ptr, ptr %8, align 8, !tbaa !35
  %66 = load ptr, ptr %7, align 8, !tbaa !35
  %67 = load i32, ptr %9, align 4, !tbaa !8
  %68 = sext i32 %67 to i64
  %69 = getelementptr inbounds [64 x i64], ptr %66, i64 %68
  %70 = getelementptr inbounds [64 x i64], ptr %69, i64 0, i64 0
  %71 = getelementptr inbounds [2 x [64 x i64]], ptr %11, i64 0, i64 1
  %72 = getelementptr inbounds [64 x i64], ptr %71, i64 0, i64 0
  %73 = getelementptr inbounds [2 x [64 x i64]], ptr %11, i64 0, i64 0
  %74 = getelementptr inbounds [64 x i64], ptr %73, i64 0, i64 0
  %75 = load i32, ptr %10, align 4, !tbaa !8
  call void @Abc_TtMux(ptr noundef %65, ptr noundef %70, ptr noundef %72, ptr noundef %74, i32 noundef %75)
  call void @llvm.lifetime.end.p0(i64 1024, ptr %11) #9
  br label %76

76:                                               ; preds = %48, %42, %27, %20, %14
  ret void
}