; Function Attrs: nofree nosync nounwind memory(read, argmem: readwrite, inaccessiblemem: none) uwtable
define void @Dau_DsdTruth6Compose_rec(i64 noundef %0, ptr noundef %1, ptr noundef writeonly captures(none) %2, i32 noundef %3, i32 noundef %4) local_unnamed_addr #9 {
  %6 = alloca [2 x [64 x i64]], align 16
  switch i64 %0, label %tailrecurse.preheader [
    i64 0, label %9
    i64 -1, label %13
  ]

tailrecurse.preheader:                            ; preds = %5
  %7 = sext i32 %3 to i64
  br label %tailrecurse

tailrecurse:                                      ; preds = %tailrecurse.preheader, %26
  %indvars.iv = phi i64 [ %7, %tailrecurse.preheader ], [ %indvars.iv.next, %26 ]
  %indvars.iv.next = add nsw i64 %indvars.iv, -1
  %8 = icmp eq i64 %indvars.iv.next, 0
  br i1 %8, label %17, label %26

9:                                                ; preds = %5
  %10 = icmp sgt i32 %4, 0
  br i1 %10, label %.lr.ph.preheader.i, label %Abc_TtConst0.exit

.lr.ph.preheader.i:                               ; preds = %9
  %11 = zext nneg i32 %4 to i64
  %12 = shl nuw nsw i64 %11, 3
  tail call void @llvm.memset.p0.i64(ptr align 8 %2, i8 0, i64 %12, i1 false), !tbaa !29
  br label %Abc_TtConst0.exit

13:                                               ; preds = %5
  %14 = icmp sgt i32 %4, 0
  br i1 %14, label %.lr.ph.preheader.i32, label %Abc_TtConst0.exit

.lr.ph.preheader.i32:                             ; preds = %13
  %15 = zext nneg i32 %4 to i64
  %16 = shl nuw nsw i64 %15, 3
  tail call void @llvm.memset.p0.i64(ptr align 8 %2, i8 -1, i64 %16, i1 false), !tbaa !29
  br label %Abc_TtConst0.exit

17:                                               ; preds = %tailrecurse
  %.not = icmp eq i64 %0, 6148914691236517205
  %18 = icmp sgt i32 %4, 0
  br i1 %.not, label %.preheader14.i, label %.preheader.i

.preheader14.i:                                   ; preds = %17
  br i1 %18, label %.lr.ph.preheader.i33, label %Abc_TtConst0.exit

.lr.ph.preheader.i33:                             ; preds = %.preheader14.i
  %wide.trip.count.i = zext nneg i32 %4 to i64
  br label %.lr.ph.i

.preheader.i:                                     ; preds = %17
  br i1 %18, label %.lr.ph18.preheader.i, label %Abc_TtConst0.exit

.lr.ph18.preheader.i:                             ; preds = %.preheader.i
  %wide.trip.count24.i = zext nneg i32 %4 to i64
  br label %.lr.ph18.i

.lr.ph.i:                                         ; preds = %.lr.ph.i, %.lr.ph.preheader.i33
  %indvars.iv.i = phi i64 [ 0, %.lr.ph.preheader.i33 ], [ %indvars.iv.next.i, %.lr.ph.i ]
  %19 = getelementptr inbounds nuw i64, ptr %1, i64 %indvars.iv.i
  %20 = load i64, ptr %19, align 8, !tbaa !29
  %21 = xor i64 %20, -1
  %22 = getelementptr inbounds nuw i64, ptr %2, i64 %indvars.iv.i
  store i64 %21, ptr %22, align 8, !tbaa !29
  %indvars.iv.next.i = add nuw nsw i64 %indvars.iv.i, 1
  %exitcond.not.i = icmp eq i64 %indvars.iv.next.i, %wide.trip.count.i
  br i1 %exitcond.not.i, label %Abc_TtConst0.exit, label %.lr.ph.i, !llvm.loop !38

.lr.ph18.i:                                       ; preds = %.lr.ph18.i, %.lr.ph18.preheader.i
  %indvars.iv21.i = phi i64 [ 0, %.lr.ph18.preheader.i ], [ %indvars.iv.next22.i, %.lr.ph18.i ]
  %23 = getelementptr inbounds nuw i64, ptr %1, i64 %indvars.iv21.i
  %24 = load i64, ptr %23, align 8, !tbaa !29
  %25 = getelementptr inbounds nuw i64, ptr %2, i64 %indvars.iv21.i
  store i64 %24, ptr %25, align 8, !tbaa !29
  %indvars.iv.next22.i = add nuw nsw i64 %indvars.iv21.i, 1
  %exitcond25.not.i = icmp eq i64 %indvars.iv.next22.i, %wide.trip.count24.i
  br i1 %exitcond25.not.i, label %Abc_TtConst0.exit, label %.lr.ph18.i, !llvm.loop !39

26:                                               ; preds = %tailrecurse
  %27 = trunc nsw i64 %indvars.iv.next to i32
  %28 = shl nuw i32 1, %27
  %29 = zext nneg i32 %28 to i64
  %30 = lshr i64 %0, %29
  %31 = getelementptr inbounds [6 x i64], ptr @s_Truths6Neg, i64 0, i64 %indvars.iv.next
  %32 = load i64, ptr %31, align 8, !tbaa !29
  %33 = xor i64 %30, %0
  %34 = and i64 %32, %33
  %.not40 = icmp eq i64 %34, 0
  br i1 %.not40, label %tailrecurse, label %35

35:                                               ; preds = %26
  call void @llvm.lifetime.start.p0(i64 1024, ptr nonnull %6) #29
  %36 = and i64 %32, %0
  %37 = shl i64 %36, %29
  %38 = or i64 %37, %36
  call void @Dau_DsdTruth6Compose_rec(i64 noundef %38, ptr noundef %1, ptr noundef nonnull %6, i32 noundef %27, i32 noundef %4)
  %39 = getelementptr inbounds [6 x i64], ptr @s_Truths6, i64 0, i64 %indvars.iv.next
  %40 = load i64, ptr %39, align 8, !tbaa !29
  %41 = and i64 %40, %0
  %42 = lshr i64 %41, %29
  %43 = or i64 %42, %41
  %44 = getelementptr inbounds nuw i8, ptr %6, i64 512
  call void @Dau_DsdTruth6Compose_rec(i64 noundef %43, ptr noundef %1, ptr noundef nonnull %44, i32 noundef %27, i32 noundef %4)
  %45 = getelementptr inbounds [64 x i64], ptr %1, i64 %indvars.iv.next
  %46 = icmp sgt i32 %4, 0
  br i1 %46, label %.lr.ph.preheader.i34, label %Abc_TtMux.exit

.lr.ph.preheader.i34:                             ; preds = %35
  %wide.trip.count.i35 = zext nneg i32 %4 to i64
  br label %.lr.ph.i36

.lr.ph.i36:                                       ; preds = %.lr.ph.i36, %.lr.ph.preheader.i34
  %indvars.iv.i37 = phi i64 [ 0, %.lr.ph.preheader.i34 ], [ %indvars.iv.next.i38, %.lr.ph.i36 ]
  %47 = getelementptr inbounds nuw i64, ptr %45, i64 %indvars.iv.i37
  %48 = load i64, ptr %47, align 8, !tbaa !29
  %49 = getelementptr inbounds nuw i64, ptr %44, i64 %indvars.iv.i37
  %50 = load i64, ptr %49, align 8, !tbaa !29
  %51 = and i64 %50, %48
  %52 = xor i64 %48, -1
  %53 = getelementptr inbounds nuw i64, ptr %6, i64 %indvars.iv.i37
  %54 = load i64, ptr %53, align 8, !tbaa !29
  %55 = and i64 %54, %52
  %56 = or i64 %55, %51
  %57 = getelementptr inbounds nuw i64, ptr %2, i64 %indvars.iv.i37
  store i64 %56, ptr %57, align 8, !tbaa !29
  %indvars.iv.next.i38 = add nuw nsw i64 %indvars.iv.i37, 1
  %exitcond.not.i39 = icmp eq i64 %indvars.iv.next.i38, %wide.trip.count.i35
  br i1 %exitcond.not.i39, label %Abc_TtMux.exit, label %.lr.ph.i36, !llvm.loop !40

Abc_TtMux.exit:                                   ; preds = %.lr.ph.i36, %35
  call void @llvm.lifetime.end.p0(i64 1024, ptr nonnull %6) #29
  br label %Abc_TtConst0.exit

Abc_TtConst0.exit:                                ; preds = %.lr.ph18.i, %.lr.ph.i, %.preheader.i, %.preheader14.i, %.lr.ph.preheader.i32, %13, %.lr.ph.preheader.i, %9, %Abc_TtMux.exit
  ret void
}